target datalayout = "e-m:e-p270:32:32-p271:32:32-p272:64:64-i64:64-i128:128-f80:128-n8:16:32:64-S128"
target triple = "x86_64-unknown-linux-gnu"

%"class.google::protobuf::compiler::Subprocess" = type { i32, i32, i32 }

; Function Attrs: mustprogress nounwind uwtable
define void @_ZN6google8protobuf8compiler10SubprocessD2Ev(ptr noundef nonnull align 4 dereferenceable(12) %this) unnamed_addr #4 align 2 personality ptr @__gxx_personality_v0 {
entry:
  %this.addr = alloca ptr, align 8
  store ptr %this, ptr %this.addr, align 8
  %this1 = load ptr, ptr %this.addr, align 8
  %child_stdin_ = getelementptr inbounds %"class.google::protobuf::compiler::Subprocess", ptr %this1, i32 0, i32 1
  %0 = load i32, ptr %child_stdin_, align 4
  %cmp = icmp ne i32 %0, -1
  br i1 %cmp, label %if.then, label %if.end

if.then:                                          ; preds = %entry
  %child_stdin_2 = getelementptr inbounds %"class.google::protobuf::compiler::Subprocess", ptr %this1, i32 0, i32 1
  %1 = load i32, ptr %child_stdin_2, align 4
  %call = invoke i32 @close(i32 noundef %1)
          to label %invoke.cont unwind label %terminate.lpad

invoke.cont:                                      ; preds = %if.then
  br label %if.end

if.end:                                           ; preds = %invoke.cont, %entry
  %child_stdout_ = getelementptr inbounds %"class.google::protobuf::compiler::Subprocess", ptr %this1, i32 0, i32 2
  %2 = load i32, ptr %child_stdout_, align 4
  %cmp3 = icmp ne i32 %2, -1
  br i1 %cmp3, label %if.then4, label %if.end8

if.then4:                                         ; preds = %if.end
  %child_stdout_5 = getelementptr inbounds %"class.google::protobuf::compiler::Subprocess", ptr %this1, i32 0, i32 2
  %3 = load i32, ptr %child_stdout_5, align 4
  %call7 = invoke i32 @close(i32 noundef %3)
          to label %invoke.cont6 unwind label %terminate.lpad

invoke.cont6:                                     ; preds = %if.then4
  br label %if.end8

if.end8:                                          ; preds = %invoke.cont6, %if.end
  ret void

terminate.lpad:                                   ; preds = %if.then4, %if.then
  %4 = landingpad { ptr, i32 }
          catch ptr null
  %5 = extractvalue { ptr, i32 } %4, 0
  call void @__clang_call_terminate(ptr %5) #14
  unreachable
}