; Function Attrs: mustprogress nounwind uwtable
define void @_ZN6google8protobuf8compiler10SubprocessD2Ev(ptr noundef nonnull readonly align 4 captures(none) dereferenceable(12) %this) unnamed_addr #4 align 2 personality ptr @__gxx_personality_v0 {
entry:
  %child_stdin_ = getelementptr inbounds nuw i8, ptr %this, i64 4
  %0 = load i32, ptr %child_stdin_, align 4
  %cmp.not = icmp eq i32 %0, -1
  br i1 %cmp.not, label %if.end, label %if.then

if.then:                                          ; preds = %entry
  %call = invoke i32 @close(i32 noundef %0)
          to label %if.end unwind label %terminate.lpad

if.end:                                           ; preds = %if.then, %entry
  %child_stdout_ = getelementptr inbounds nuw i8, ptr %this, i64 8
  %1 = load i32, ptr %child_stdout_, align 4
  %cmp3.not = icmp eq i32 %1, -1
  br i1 %cmp3.not, label %if.end8, label %if.then4

if.then4:                                         ; preds = %if.end
  %call7 = invoke i32 @close(i32 noundef %1)
          to label %if.end8 unwind label %terminate.lpad

if.end8:                                          ; preds = %if.then4, %if.end
  ret void

terminate.lpad:                                   ; preds = %if.then4, %if.then
  %2 = landingpad { ptr, i32 }
          catch ptr null
  %3 = extractvalue { ptr, i32 } %2, 0
  tail call void @__clang_call_terminate(ptr %3) #22
  unreachable
}